target datalayout = "e-m:e-p270:32:32-p271:32:32-p272:64:64-i64:64-i128:128-f80:128-n8:16:32:64-S128"
target triple = "x86_64-pc-linux-gnu"

%struct._e_guid_t = type { i32, i16, i16, [8 x i8] }
%struct._packet_info = type { ptr, ptr, i32, i32, %struct.nstime_t, %struct.nstime_t, %struct.nstime_t, i32, ptr, ptr, ptr, ptr, %struct._address, %struct._address, %struct._address, %struct._address, %struct._address, %struct._address, i32, ptr, i32, %struct.anon, i32, i32, i32, i32, ptr, i32, ptr, ptr, i16, i16, i32, i32, i16, i32, i32, ptr, ptr, ptr, i8, i8, i16, i16, i16, i32, i16, i16, ptr, ptr, ptr, ptr, ptr, i32 }
%struct.nstime_t = type { i64, i32 }
%struct._address = type { i32, i32, ptr, ptr }
%struct.anon = type { i8, [3 x i8] }
%struct.pnio_ar_s = type { %struct._e_guid_t, i16, i16, [6 x i8], i16, [6 x i8], i16, i16 }
%struct._proto_node = type { ptr, ptr, ptr, ptr, ptr, ptr }
%struct.field_info = type { ptr, i32, i32, i32, i32, i32, i32, ptr, ptr, ptr, i32, i32 }

@hf_pn_io_cminitiator_macadd = internal global i32 0, align 4
@hf_pn_io_cmresponder_macadd = internal global i32 0, align 4
@hf_pn_io_frame_id = internal global i32 0, align 4
@hf_pn_io_localalarmref = internal global i32 0, align 4
@hf_pn_io_ar_uuid = internal global i32 0, align 4
@ett_pn_io_ar_info = internal global i32 0, align 4
@proto_pn_io = internal global i32 0, align 4
@.str.1629 = private unnamed_addr constant [83 x i8] c"ARUUID:%s ContrMAC:%s ContrAlRef:0x%x DevMAC:%s DevAlRef:0x%x InCR:0x%x OutCR=0x%x\00", align 1

; Function Attrs: nounwind uwtable
define internal void @proto_item_set_generated(ptr noundef %0) #0 {
  %2 = alloca ptr, align 8
  store ptr %0, ptr %2, align 8
  %3 = load ptr, ptr %2, align 8
  %4 = icmp ne ptr %3, null
  br i1 %4, label %5, label %24

5:                                                ; preds = %1
  br label %6

6:                                                ; preds = %5
  %7 = load ptr, ptr %2, align 8
  %8 = getelementptr inbounds %struct._proto_node, ptr %7, i32 0, i32 4
  %9 = load ptr, ptr %8, align 8
  %10 = icmp ne ptr %9, null
  br i1 %10, label %11, label %22

11:                                               ; preds = %6
  %12 = load ptr, ptr %2, align 8
  %13 = getelementptr inbounds %struct._proto_node, ptr %12, i32 0, i32 4
  %14 = load ptr, ptr %13, align 8
  %15 = getelementptr inbounds %struct.field_info, ptr %14, i32 0, i32 6
  %16 = load i32, ptr %15, align 4
  %17 = or i32 %16, 2
  %18 = load ptr, ptr %2, align 8
  %19 = getelementptr inbounds %struct._proto_node, ptr %18, i32 0, i32 4
  %20 = load ptr, ptr %19, align 8
  %21 = getelementptr inbounds %struct.field_info, ptr %20, i32 0, i32 6
  store i32 %17, ptr %21, align 4
  br label %22

22:                                               ; preds = %11, %6
  br label %23

23:                                               ; preds = %22
  br label %24

24:                                               ; preds = %23, %1
  ret void
}

; Function Attrs: nounwind uwtable
define internal void @set_address(ptr noundef %0, i32 noundef %1, i32 noundef %2, ptr noundef %3) #0 {
  %5 = alloca ptr, align 8
  %6 = alloca i32, align 4
  %7 = alloca i32, align 4
  %8 = alloca ptr, align 8
  store ptr %0, ptr %5, align 8
  store i32 %1, ptr %6, align 4
  store i32 %2, ptr %7, align 4
  store ptr %3, ptr %8, align 8
  %9 = load i32, ptr %7, align 4
  %10 = icmp eq i32 %9, 0
  br i1 %10, label %11, label %14

11:                                               ; preds = %4
  br label %12

12:                                               ; preds = %11
  br label %13

13:                                               ; preds = %12
  br label %19

14:                                               ; preds = %4
  br label %15

15:                                               ; preds = %14
  br label %16

16:                                               ; preds = %15
  br label %17

17:                                               ; preds = %16
  br label %18

18:                                               ; preds = %17
  br label %19

19:                                               ; preds = %18, %13
  %20 = load i32, ptr %6, align 4
  %21 = load ptr, ptr %5, align 8
  %22 = getelementptr inbounds %struct._address, ptr %21, i32 0, i32 0
  store i32 %20, ptr %22, align 8
  %23 = load i32, ptr %7, align 4
  %24 = load ptr, ptr %5, align 8
  %25 = getelementptr inbounds %struct._address, ptr %24, i32 0, i32 1
  store i32 %23, ptr %25, align 4
  %26 = load ptr, ptr %8, align 8
  %27 = load ptr, ptr %5, align 8
  %28 = getelementptr inbounds %struct._address, ptr %27, i32 0, i32 2
  store ptr %26, ptr %28, align 8
  %29 = load ptr, ptr %5, align 8
  %30 = getelementptr inbounds %struct._address, ptr %29, i32 0, i32 3
  store ptr null, ptr %30, align 8
  ret void
}

; Function Attrs: nounwind uwtable
define internal void @pnio_ar_info(ptr noundef %0, ptr noundef %1, ptr noundef %2, ptr noundef %3) #0 {
  %5 = alloca ptr, align 8
  %6 = alloca ptr, align 8
  %7 = alloca ptr, align 8
  %8 = alloca ptr, align 8
  %9 = alloca ptr, align 8
  %10 = alloca ptr, align 8
  %11 = alloca ptr, align 8
  %12 = alloca %struct._address, align 8
  %13 = alloca %struct._address, align 8
  store ptr %0, ptr %5, align 8
  store ptr %1, ptr %6, align 8
  store ptr %2, ptr %7, align 8
  store ptr %3, ptr %8, align 8
  %14 = call ptr @wmem_file_scope()
  %15 = load ptr, ptr %6, align 8
  %16 = load i32, ptr @proto_pn_io, align 4
  %17 = load ptr, ptr %8, align 8
  call void @p_add_proto_data(ptr noundef %14, ptr noundef %15, i32 noundef %16, i32 noundef 0, ptr noundef %17)
  %18 = load ptr, ptr %6, align 8
  %19 = getelementptr inbounds %struct._packet_info, ptr %18, i32 0, i32 50
  %20 = load ptr, ptr %19, align 8
  %21 = load ptr, ptr %6, align 8
  %22 = load i32, ptr @proto_pn_io, align 4
  %23 = inttoptr i64 10 to ptr
  call void @p_add_proto_data(ptr noundef %20, ptr noundef %21, i32 noundef %22, i32 noundef 0, ptr noundef %23)
  %24 = load ptr, ptr %7, align 8
  %25 = icmp ne ptr %24, null
  br i1 %25, label %26, label %127

26:                                               ; preds = %4
  %27 = load ptr, ptr %8, align 8
  %28 = getelementptr inbounds %struct.pnio_ar_s, ptr %27, i32 0, i32 3
  %29 = getelementptr inbounds [6 x i8], ptr %28, i64 0, i64 0
  call void @set_address(ptr noundef %12, i32 noundef 1, i32 noundef 6, ptr noundef %29)
  %30 = load ptr, ptr %8, align 8
  %31 = getelementptr inbounds %struct.pnio_ar_s, ptr %30, i32 0, i32 5
  %32 = getelementptr inbounds [6 x i8], ptr %31, i64 0, i64 0
  call void @set_address(ptr noundef %13, i32 noundef 1, i32 noundef 6, ptr noundef %32)
  %33 = load ptr, ptr %7, align 8
  %34 = load ptr, ptr %5, align 8
  %35 = load i32, ptr @ett_pn_io_ar_info, align 4
  %36 = load ptr, ptr %6, align 8
  %37 = getelementptr inbounds %struct._packet_info, ptr %36, i32 0, i32 50
  %38 = load ptr, ptr %37, align 8
  %39 = load ptr, ptr %8, align 8
  %40 = getelementptr inbounds %struct.pnio_ar_s, ptr %39, i32 0, i32 0
  %41 = call ptr @guid_to_str(ptr noundef %38, ptr noundef %40)
  %42 = load ptr, ptr %6, align 8
  %43 = getelementptr inbounds %struct._packet_info, ptr %42, i32 0, i32 50
  %44 = load ptr, ptr %43, align 8
  %45 = call ptr @address_to_str(ptr noundef %44, ptr noundef %12)
  %46 = load ptr, ptr %8, align 8
  %47 = getelementptr inbounds %struct.pnio_ar_s, ptr %46, i32 0, i32 4
  %48 = load i16, ptr %47, align 2
  %49 = zext i16 %48 to i32
  %50 = load ptr, ptr %6, align 8
  %51 = getelementptr inbounds %struct._packet_info, ptr %50, i32 0, i32 50
  %52 = load ptr, ptr %51, align 8
  %53 = call ptr @address_to_str(ptr noundef %52, ptr noundef %13)
  %54 = load ptr, ptr %8, align 8
  %55 = getelementptr inbounds %struct.pnio_ar_s, ptr %54, i32 0, i32 6
  %56 = load i16, ptr %55, align 2
  %57 = zext i16 %56 to i32
  %58 = load ptr, ptr %8, align 8
  %59 = getelementptr inbounds %struct.pnio_ar_s, ptr %58, i32 0, i32 1
  %60 = load i16, ptr %59, align 4
  %61 = zext i16 %60 to i32
  %62 = load ptr, ptr %8, align 8
  %63 = getelementptr inbounds %struct.pnio_ar_s, ptr %62, i32 0, i32 2
  %64 = load i16, ptr %63, align 2
  %65 = zext i16 %64 to i32
  %66 = call ptr (ptr, ptr, i32, i32, i32, ptr, ptr, ...) @proto_tree_add_subtree_format(ptr noundef %33, ptr noundef %34, i32 noundef 0, i32 noundef 0, i32 noundef %35, ptr noundef %10, ptr noundef @.str.1629, ptr noundef %41, ptr noundef %45, i32 noundef %49, ptr noundef %53, i32 noundef %57, i32 noundef %61, i32 noundef %65)
  store ptr %66, ptr %11, align 8
  %67 = load ptr, ptr %10, align 8
  call void @proto_item_set_generated(ptr noundef %67)
  %68 = load ptr, ptr %11, align 8
  %69 = load i32, ptr @hf_pn_io_ar_uuid, align 4
  %70 = load ptr, ptr %5, align 8
  %71 = load ptr, ptr %8, align 8
  %72 = getelementptr inbounds %struct.pnio_ar_s, ptr %71, i32 0, i32 0
  %73 = call ptr @proto_tree_add_guid(ptr noundef %68, i32 noundef %69, ptr noundef %70, i32 noundef 0, i32 noundef 0, ptr noundef %72)
  store ptr %73, ptr %9, align 8
  %74 = load ptr, ptr %9, align 8
  call void @proto_item_set_generated(ptr noundef %74)
  %75 = load ptr, ptr %11, align 8
  %76 = load i32, ptr @hf_pn_io_cminitiator_macadd, align 4
  %77 = load ptr, ptr %5, align 8
  %78 = load ptr, ptr %8, align 8
  %79 = getelementptr inbounds %struct.pnio_ar_s, ptr %78, i32 0, i32 3
  %80 = getelementptr inbounds [6 x i8], ptr %79, i64 0, i64 0
  %81 = call ptr @proto_tree_add_ether(ptr noundef %75, i32 noundef %76, ptr noundef %77, i32 noundef 0, i32 noundef 0, ptr noundef %80)
  store ptr %81, ptr %9, align 8
  %82 = load ptr, ptr %9, align 8
  call void @proto_item_set_generated(ptr noundef %82)
  %83 = load ptr, ptr %11, align 8
  %84 = load i32, ptr @hf_pn_io_localalarmref, align 4
  %85 = load ptr, ptr %5, align 8
  %86 = load ptr, ptr %8, align 8
  %87 = getelementptr inbounds %struct.pnio_ar_s, ptr %86, i32 0, i32 4
  %88 = load i16, ptr %87, align 2
  %89 = zext i16 %88 to i32
  %90 = call ptr @proto_tree_add_uint(ptr noundef %83, i32 noundef %84, ptr noundef %85, i32 noundef 0, i32 noundef 0, i32 noundef %89)
  store ptr %90, ptr %9, align 8
  %91 = load ptr, ptr %9, align 8
  call void @proto_item_set_generated(ptr noundef %91)
  %92 = load ptr, ptr %11, align 8
  %93 = load i32, ptr @hf_pn_io_cmresponder_macadd, align 4
  %94 = load ptr, ptr %5, align 8
  %95 = load ptr, ptr %8, align 8
  %96 = getelementptr inbounds %struct.pnio_ar_s, ptr %95, i32 0, i32 5
  %97 = getelementptr inbounds [6 x i8], ptr %96, i64 0, i64 0
  %98 = call ptr @proto_tree_add_ether(ptr noundef %92, i32 noundef %93, ptr noundef %94, i32 noundef 0, i32 noundef 0, ptr noundef %97)
  store ptr %98, ptr %9, align 8
  %99 = load ptr, ptr %9, align 8
  call void @proto_item_set_generated(ptr noundef %99)
  %100 = load ptr, ptr %11, align 8
  %101 = load i32, ptr @hf_pn_io_localalarmref, align 4
  %102 = load ptr, ptr %5, align 8
  %103 = load ptr, ptr %8, align 8
  %104 = getelementptr inbounds %struct.pnio_ar_s, ptr %103, i32 0, i32 6
  %105 = load i16, ptr %104, align 2
  %106 = zext i16 %105 to i32
  %107 = call ptr @proto_tree_add_uint(ptr noundef %100, i32 noundef %101, ptr noundef %102, i32 noundef 0, i32 noundef 0, i32 noundef %106)
  store ptr %107, ptr %9, align 8
  %108 = load ptr, ptr %9, align 8
  call void @proto_item_set_generated(ptr noundef %108)
  %109 = load ptr, ptr %11, align 8
  %110 = load i32, ptr @hf_pn_io_frame_id, align 4
  %111 = load ptr, ptr %5, align 8
  %112 = load ptr, ptr %8, align 8
  %113 = getelementptr inbounds %struct.pnio_ar_s, ptr %112, i32 0, i32 1
  %114 = load i16, ptr %113, align 4
  %115 = zext i16 %114 to i32
  %116 = call ptr @proto_tree_add_uint(ptr noundef %109, i32 noundef %110, ptr noundef %111, i32 noundef 0, i32 noundef 0, i32 noundef %115)
  store ptr %116, ptr %9, align 8
  %117 = load ptr, ptr %9, align 8
  call void @proto_item_set_generated(ptr noundef %117)
  %118 = load ptr, ptr %11, align 8
  %119 = load i32, ptr @hf_pn_io_frame_id, align 4
  %120 = load ptr, ptr %5, align 8
  %121 = load ptr, ptr %8, align 8
  %122 = getelementptr inbounds %struct.pnio_ar_s, ptr %121, i32 0, i32 2
  %123 = load i16, ptr %122, align 2
  %124 = zext i16 %123 to i32
  %125 = call ptr @proto_tree_add_uint(ptr noundef %118, i32 noundef %119, ptr noundef %120, i32 noundef 0, i32 noundef 0, i32 noundef %124)
  store ptr %125, ptr %9, align 8
  %126 = load ptr, ptr %9, align 8
  call void @proto_item_set_generated(ptr noundef %126)
  br label %127

127:                                              ; preds = %26, %4
  ret void
}