; Function Attrs: nounwind uwtable
define internal fastcc void @pnio_ar_info(ptr noundef %0, ptr noundef %1, ptr noundef %2, ptr noundef nonnull %3) unnamed_addr #0 {
  %5 = alloca ptr, align 8
  %6 = alloca %struct._address, align 8
  %7 = alloca %struct._address, align 8
  %8 = tail call ptr @wmem_file_scope() #11
  %9 = load i32, ptr @proto_pn_io, align 4
  tail call void @p_add_proto_data(ptr noundef %8, ptr noundef %1, i32 noundef %9, i32 noundef 0, ptr noundef nonnull %3) #11
  %10 = getelementptr inbounds nuw i8, ptr %1, i64 408
  %11 = load ptr, ptr %10, align 8
  %12 = load i32, ptr @proto_pn_io, align 4
  tail call void @p_add_proto_data(ptr noundef %11, ptr noundef %1, i32 noundef %12, i32 noundef 0, ptr noundef nonnull inttoptr (i64 10 to ptr)) #11
  %.not = icmp eq ptr %2, null
  br i1 %.not, label %proto_item_set_generated.exit65, label %13

13:                                               ; preds = %4
  %14 = getelementptr inbounds nuw i8, ptr %3, i64 20
  store i32 1, ptr %6, align 8
  %15 = getelementptr inbounds nuw i8, ptr %6, i64 4
  store i32 6, ptr %15, align 4
  %16 = getelementptr inbounds nuw i8, ptr %6, i64 8
  store ptr %14, ptr %16, align 8
  %17 = getelementptr inbounds nuw i8, ptr %6, i64 16
  store ptr null, ptr %17, align 8
  %18 = getelementptr inbounds nuw i8, ptr %3, i64 28
  store i32 1, ptr %7, align 8
  %19 = getelementptr inbounds nuw i8, ptr %7, i64 4
  store i32 6, ptr %19, align 4
  %20 = getelementptr inbounds nuw i8, ptr %7, i64 8
  store ptr %18, ptr %20, align 8
  %21 = getelementptr inbounds nuw i8, ptr %7, i64 16
  store ptr null, ptr %21, align 8
  %22 = load i32, ptr @ett_pn_io_ar_info, align 4
  %23 = load ptr, ptr %10, align 8
  %24 = tail call ptr @guid_to_str(ptr noundef %23, ptr noundef nonnull %3) #11
  %25 = load ptr, ptr %10, align 8
  %26 = call ptr @address_to_str(ptr noundef %25, ptr noundef nonnull %6) #11
  %27 = getelementptr inbounds nuw i8, ptr %3, i64 26
  %28 = load i16, ptr %27, align 2
  %29 = zext i16 %28 to i32
  %30 = load ptr, ptr %10, align 8
  %31 = call ptr @address_to_str(ptr noundef %30, ptr noundef nonnull %7) #11
  %32 = getelementptr inbounds nuw i8, ptr %3, i64 34
  %33 = load i16, ptr %32, align 2
  %34 = zext i16 %33 to i32
  %35 = getelementptr inbounds nuw i8, ptr %3, i64 16
  %36 = load i16, ptr %35, align 4
  %37 = zext i16 %36 to i32
  %38 = getelementptr inbounds nuw i8, ptr %3, i64 18
  %39 = load i16, ptr %38, align 2
  %40 = zext i16 %39 to i32
  %41 = call ptr (ptr, ptr, i32, i32, i32, ptr, ptr, ...) @proto_tree_add_subtree_format(ptr noundef nonnull %2, ptr noundef %0, i32 noundef 0, i32 noundef 0, i32 noundef %22, ptr noundef nonnull %5, ptr noundef nonnull @.str.1629, ptr noundef %24, ptr noundef %26, i32 noundef %29, ptr noundef %31, i32 noundef %34, i32 noundef %37, i32 noundef %40) #11
  %42 = load ptr, ptr %5, align 8
  %.not.i = icmp eq ptr %42, null
  br i1 %.not.i, label %proto_item_set_generated.exit, label %43

43:                                               ; preds = %13
  %44 = getelementptr inbounds nuw i8, ptr %42, i64 32
  %45 = load ptr, ptr %44, align 8
  %.not5.i = icmp eq ptr %45, null
  br i1 %.not5.i, label %proto_item_set_generated.exit, label %46

46:                                               ; preds = %43
  %47 = getelementptr inbounds nuw i8, ptr %45, i64 28
  %48 = load i32, ptr %47, align 4
  %49 = or i32 %48, 2
  store i32 %49, ptr %47, align 4
  br label %proto_item_set_generated.exit

proto_item_set_generated.exit:                    ; preds = %13, %43, %46
  %50 = load i32, ptr @hf_pn_io_ar_uuid, align 4
  %51 = call ptr @proto_tree_add_guid(ptr noundef %41, i32 noundef %50, ptr noundef %0, i32 noundef 0, i32 noundef 0, ptr noundef nonnull %3) #11
  %.not.i45 = icmp eq ptr %51, null
  br i1 %.not.i45, label %proto_item_set_generated.exit47, label %52

52:                                               ; preds = %proto_item_set_generated.exit
  %53 = getelementptr inbounds nuw i8, ptr %51, i64 32
  %54 = load ptr, ptr %53, align 8
  %.not5.i46 = icmp eq ptr %54, null
  br i1 %.not5.i46, label %proto_item_set_generated.exit47, label %55

55:                                               ; preds = %52
  %56 = getelementptr inbounds nuw i8, ptr %54, i64 28
  %57 = load i32, ptr %56, align 4
  %58 = or i32 %57, 2
  store i32 %58, ptr %56, align 4
  br label %proto_item_set_generated.exit47

proto_item_set_generated.exit47:                  ; preds = %proto_item_set_generated.exit, %52, %55
  %59 = load i32, ptr @hf_pn_io_cminitiator_macadd, align 4
  %60 = call ptr @proto_tree_add_ether(ptr noundef %41, i32 noundef %59, ptr noundef %0, i32 noundef 0, i32 noundef 0, ptr noundef nonnull %14) #11
  %.not.i48 = icmp eq ptr %60, null
  br i1 %.not.i48, label %proto_item_set_generated.exit50, label %61

61:                                               ; preds = %proto_item_set_generated.exit47
  %62 = getelementptr inbounds nuw i8, ptr %60, i64 32
  %63 = load ptr, ptr %62, align 8
  %.not5.i49 = icmp eq ptr %63, null
  br i1 %.not5.i49, label %proto_item_set_generated.exit50, label %64

64:                                               ; preds = %61
  %65 = getelementptr inbounds nuw i8, ptr %63, i64 28
  %66 = load i32, ptr %65, align 4
  %67 = or i32 %66, 2
  store i32 %67, ptr %65, align 4
  br label %proto_item_set_generated.exit50

proto_item_set_generated.exit50:                  ; preds = %proto_item_set_generated.exit47, %61, %64
  %68 = load i32, ptr @hf_pn_io_localalarmref, align 4
  %69 = load i16, ptr %27, align 2
  %70 = zext i16 %69 to i32
  %71 = call ptr @proto_tree_add_uint(ptr noundef %41, i32 noundef %68, ptr noundef %0, i32 noundef 0, i32 noundef 0, i32 noundef %70) #11
  %.not.i51 = icmp eq ptr %71, null
  br i1 %.not.i51, label %proto_item_set_generated.exit53, label %72

72:                                               ; preds = %proto_item_set_generated.exit50
  %73 = getelementptr inbounds nuw i8, ptr %71, i64 32
  %74 = load ptr, ptr %73, align 8
  %.not5.i52 = icmp eq ptr %74, null
  br i1 %.not5.i52, label %proto_item_set_generated.exit53, label %75

75:                                               ; preds = %72
  %76 = getelementptr inbounds nuw i8, ptr %74, i64 28
  %77 = load i32, ptr %76, align 4
  %78 = or i32 %77, 2
  store i32 %78, ptr %76, align 4
  br label %proto_item_set_generated.exit53

proto_item_set_generated.exit53:                  ; preds = %proto_item_set_generated.exit50, %72, %75
  %79 = load i32, ptr @hf_pn_io_cmresponder_macadd, align 4
  %80 = call ptr @proto_tree_add_ether(ptr noundef %41, i32 noundef %79, ptr noundef %0, i32 noundef 0, i32 noundef 0, ptr noundef nonnull %18) #11
  %.not.i54 = icmp eq ptr %80, null
  br i1 %.not.i54, label %proto_item_set_generated.exit56, label %81

81:                                               ; preds = %proto_item_set_generated.exit53
  %82 = getelementptr inbounds nuw i8, ptr %80, i64 32
  %83 = load ptr, ptr %82, align 8
  %.not5.i55 = icmp eq ptr %83, null
  br i1 %.not5.i55, label %proto_item_set_generated.exit56, label %84

84:                                               ; preds = %81
  %85 = getelementptr inbounds nuw i8, ptr %83, i64 28
  %86 = load i32, ptr %85, align 4
  %87 = or i32 %86, 2
  store i32 %87, ptr %85, align 4
  br label %proto_item_set_generated.exit56

proto_item_set_generated.exit56:                  ; preds = %proto_item_set_generated.exit53, %81, %84
  %88 = load i32, ptr @hf_pn_io_localalarmref, align 4
  %89 = load i16, ptr %32, align 2
  %90 = zext i16 %89 to i32
  %91 = call ptr @proto_tree_add_uint(ptr noundef %41, i32 noundef %88, ptr noundef %0, i32 noundef 0, i32 noundef 0, i32 noundef %90) #11
  %.not.i57 = icmp eq ptr %91, null
  br i1 %.not.i57, label %proto_item_set_generated.exit59, label %92

92:                                               ; preds = %proto_item_set_generated.exit56
  %93 = getelementptr inbounds nuw i8, ptr %91, i64 32
  %94 = load ptr, ptr %93, align 8
  %.not5.i58 = icmp eq ptr %94, null
  br i1 %.not5.i58, label %proto_item_set_generated.exit59, label %95

95:                                               ; preds = %92
  %96 = getelementptr inbounds nuw i8, ptr %94, i64 28
  %97 = load i32, ptr %96, align 4
  %98 = or i32 %97, 2
  store i32 %98, ptr %96, align 4
  br label %proto_item_set_generated.exit59

proto_item_set_generated.exit59:                  ; preds = %proto_item_set_generated.exit56, %92, %95
  %99 = load i32, ptr @hf_pn_io_frame_id, align 4
  %100 = load i16, ptr %35, align 4
  %101 = zext i16 %100 to i32
  %102 = call ptr @proto_tree_add_uint(ptr noundef %41, i32 noundef %99, ptr noundef %0, i32 noundef 0, i32 noundef 0, i32 noundef %101) #11
  %.not.i60 = icmp eq ptr %102, null
  br i1 %.not.i60, label %proto_item_set_generated.exit62, label %103

103:                                              ; preds = %proto_item_set_generated.exit59
  %104 = getelementptr inbounds nuw i8, ptr %102, i64 32
  %105 = load ptr, ptr %104, align 8
  %.not5.i61 = icmp eq ptr %105, null
  br i1 %.not5.i61, label %proto_item_set_generated.exit62, label %106

106:                                              ; preds = %103
  %107 = getelementptr inbounds nuw i8, ptr %105, i64 28
  %108 = load i32, ptr %107, align 4
  %109 = or i32 %108, 2
  store i32 %109, ptr %107, align 4
  br label %proto_item_set_generated.exit62

proto_item_set_generated.exit62:                  ; preds = %proto_item_set_generated.exit59, %103, %106
  %110 = load i32, ptr @hf_pn_io_frame_id, align 4
  %111 = load i16, ptr %38, align 2
  %112 = zext i16 %111 to i32
  %113 = call ptr @proto_tree_add_uint(ptr noundef %41, i32 noundef %110, ptr noundef %0, i32 noundef 0, i32 noundef 0, i32 noundef %112) #11
  %.not.i63 = icmp eq ptr %113, null
  br i1 %.not.i63, label %proto_item_set_generated.exit65, label %114

114:                                              ; preds = %proto_item_set_generated.exit62
  %115 = getelementptr inbounds nuw i8, ptr %113, i64 32
  %116 = load ptr, ptr %115, align 8
  %.not5.i64 = icmp eq ptr %116, null
  br i1 %.not5.i64, label %proto_item_set_generated.exit65, label %117

117:                                              ; preds = %114
  %118 = getelementptr inbounds nuw i8, ptr %116, i64 28
  %119 = load i32, ptr %118, align 4
  %120 = or i32 %119, 2
  store i32 %120, ptr %118, align 4
  br label %proto_item_set_generated.exit65

proto_item_set_generated.exit65:                  ; preds = %117, %114, %proto_item_set_generated.exit62, %4
  ret void
}